; ModuleID = '57/2452.c'
source_filename = "57/2452.c"
target datalayout = "e-m:e-p270:32:32-p271:32:32-p272:64:64-i64:64-f80:128-n8:16:32:64-S128"
target triple = "x86_64-pc-linux-gnu"

@.str = private unnamed_addr constant [3 x i8] c"%d\00", align 1
@.str.1 = private unnamed_addr constant [3 x i8] c"%s\00", align 1
@.str.2 = private unnamed_addr constant [4 x i8] c"%s\0A\00", align 1

; Function Attrs: noinline nounwind uwtable
define dso_local i32 @main() #0 {
  %1 = alloca i32, align 4
  %2 = alloca i32, align 4
  %3 = alloca i32, align 4
  %4 = alloca i32, align 4
  %5 = alloca i32, align 4
  %6 = alloca i32, align 4
  %7 = alloca [51 x [33 x i8]], align 16
  %8 = alloca [51 x [33 x i8]], align 16
  store i32 0, i32* %1, align 4
  store i32 1, i32* %6, align 4
  %9 = call i32 (i8*, ...) @__isoc99_scanf(i8* getelementptr inbounds ([3 x i8], [3 x i8]* @.str, i64 0, i64 0), i32* %2)
  store i32 0, i32* %3, align 4
  br label %10

10:                                               ; preds = %154, %0
  %11 = load i32, i32* %3, align 4
  %12 = load i32, i32* %2, align 4
  %13 = icmp slt i32 %11, %12
  br i1 %13, label %14, label %157

14:                                               ; preds = %10
  %15 = load i32, i32* %3, align 4
  %16 = sext i32 %15 to i64
  %17 = getelementptr inbounds [51 x [33 x i8]], [51 x [33 x i8]]* %7, i64 0, i64 %16
  %18 = getelementptr inbounds [33 x i8], [33 x i8]* %17, i64 0, i64 0
  %19 = call i32 (i8*, ...) @__isoc99_scanf(i8* getelementptr inbounds ([3 x i8], [3 x i8]* @.str.1, i64 0, i64 0), i8* %18)
  %20 = load i32, i32* %3, align 4
  %21 = sext i32 %20 to i64
  %22 = getelementptr inbounds [51 x [33 x i8]], [51 x [33 x i8]]* %7, i64 0, i64 %21
  %23 = getelementptr inbounds [33 x i8], [33 x i8]* %22, i64 0, i64 0
  %24 = call i64 @strlen(i8* %23) #3
  %25 = trunc i64 %24 to i32
  store i32 %25, i32* %5, align 4
  %26 = load i32, i32* %3, align 4
  %27 = sext i32 %26 to i64
  %28 = getelementptr inbounds [51 x [33 x i8]], [51 x [33 x i8]]* %7, i64 0, i64 %27
  %29 = load i32, i32* %5, align 4
  %30 = sub nsw i32 %29, 1
  %31 = sext i32 %30 to i64
  %32 = getelementptr inbounds [33 x i8], [33 x i8]* %28, i64 0, i64 %31
  %33 = load i8, i8* %32, align 1
  %34 = sext i8 %33 to i32
  %35 = icmp eq i32 %34, 103
  br i1 %35, label %36, label %67

36:                                               ; preds = %14
  store i32 0, i32* %4, align 4
  br label %37

37:                                               ; preds = %56, %36
  %38 = load i32, i32* %4, align 4
  %39 = load i32, i32* %5, align 4
  %40 = sub nsw i32 %39, 3
  %41 = icmp slt i32 %38, %40
  br i1 %41, label %42, label %59

42:                                               ; preds = %37
  %43 = load i32, i32* %3, align 4
  %44 = sext i32 %43 to i64
  %45 = getelementptr inbounds [51 x [33 x i8]], [51 x [33 x i8]]* %7, i64 0, i64 %44
  %46 = load i32, i32* %4, align 4
  %47 = sext i32 %46 to i64
  %48 = getelementptr inbounds [33 x i8], [33 x i8]* %45, i64 0, i64 %47
  %49 = load i8, i8* %48, align 1
  %50 = load i32, i32* %3, align 4
  %51 = sext i32 %50 to i64
  %52 = getelementptr inbounds [51 x [33 x i8]], [51 x [33 x i8]]* %8, i64 0, i64 %51
  %53 = load i32, i32* %4, align 4
  %54 = sext i32 %53 to i64
  %55 = getelementptr inbounds [33 x i8], [33 x i8]* %52, i64 0, i64 %54
  store i8 %49, i8* %55, align 1
  br label %56

56:                                               ; preds = %42
  %57 = load i32, i32* %4, align 4
  %58 = add nsw i32 %57, 1
  store i32 %58, i32* %4, align 4
  br label %37

59:                                               ; preds = %37
  %60 = load i32, i32* %3, align 4
  %61 = sext i32 %60 to i64
  %62 = getelementptr inbounds [51 x [33 x i8]], [51 x [33 x i8]]* %8, i64 0, i64 %61
  %63 = load i32, i32* %5, align 4
  %64 = sub nsw i32 %63, 3
  %65 = sext i32 %64 to i64
  %66 = getelementptr inbounds [33 x i8], [33 x i8]* %62, i64 0, i64 %65
  store i8 0, i8* %66, align 1
  br label %153

67:                                               ; preds = %14
  %68 = load i32, i32* %3, align 4
  %69 = sext i32 %68 to i64
  %70 = getelementptr inbounds [51 x [33 x i8]], [51 x [33 x i8]]* %7, i64 0, i64 %69
  %71 = load i32, i32* %5, align 4
  %72 = sub nsw i32 %71, 1
  %73 = sext i32 %72 to i64
  %74 = getelementptr inbounds [33 x i8], [33 x i8]* %70, i64 0, i64 %73
  %75 = load i8, i8* %74, align 1
  %76 = sext i8 %75 to i32
  %77 = icmp eq i32 %76, 114
  br i1 %77, label %78, label %109

78:                                               ; preds = %67
  store i32 0, i32* %4, align 4
  br label %79

79:                                               ; preds = %98, %78
  %80 = load i32, i32* %4, align 4
  %81 = load i32, i32* %5, align 4
  %82 = sub nsw i32 %81, 2
  %83 = icmp slt i32 %80, %82
  br i1 %83, label %84, label %101

84:                                               ; preds = %79
  %85 = load i32, i32* %3, align 4
  %86 = sext i32 %85 to i64
  %87 = getelementptr inbounds [51 x [33 x i8]], [51 x [33 x i8]]* %7, i64 0, i64 %86
  %88 = load i32, i32* %4, align 4
  %89 = sext i32 %88 to i64
  %90 = getelementptr inbounds [33 x i8], [33 x i8]* %87, i64 0, i64 %89
  %91 = load i8, i8* %90, align 1
  %92 = load i32, i32* %3, align 4
  %93 = sext i32 %92 to i64
  %94 = getelementptr inbounds [51 x [33 x i8]], [51 x [33 x i8]]* %8, i64 0, i64 %93
  %95 = load i32, i32* %4, align 4
  %96 = sext i32 %95 to i64
  %97 = getelementptr inbounds [33 x i8], [33 x i8]* %94, i64 0, i64 %96
  store i8 %91, i8* %97, align 1
  br label %98

98:                                               ; preds = %84
  %99 = load i32, i32* %4, align 4
  %100 = add nsw i32 %99, 1
  store i32 %100, i32* %4, align 4
  br label %79

101:                                              ; preds = %79
  %102 = load i32, i32* %3, align 4
  %103 = sext i32 %102 to i64
  %104 = getelementptr inbounds [51 x [33 x i8]], [51 x [33 x i8]]* %8, i64 0, i64 %103
  %105 = load i32, i32* %5, align 4
  %106 = sub nsw i32 %105, 2
  %107 = sext i32 %106 to i64
  %108 = getelementptr inbounds [33 x i8], [33 x i8]* %104, i64 0, i64 %107
  store i8 0, i8* %108, align 1
  br label %152

109:                                              ; preds = %67
  %110 = load i32, i32* %3, align 4
  %111 = sext i32 %110 to i64
  %112 = getelementptr inbounds [51 x [33 x i8]], [51 x [33 x i8]]* %7, i64 0, i64 %111
  %113 = load i32, i32* %5, align 4
  %114 = sub nsw i32 %113, 1
  %115 = sext i32 %114 to i64
  %116 = getelementptr inbounds [33 x i8], [33 x i8]* %112, i64 0, i64 %115
  %117 = load i8, i8* %116, align 1
  %118 = sext i8 %117 to i32
  %119 = icmp eq i32 %118, 121
  br i1 %119, label %120, label %151

120:                                              ; preds = %109
  store i32 0, i32* %4, align 4
  br label %121

121:                                              ; preds = %140, %120
  %122 = load i32, i32* %4, align 4
  %123 = load i32, i32* %5, align 4
  %124 = sub nsw i32 %123, 2
  %125 = icmp slt i32 %122, %124
  br i1 %125, label %126, label %143

126:                                              ; preds = %121
  %127 = load i32, i32* %3, align 4
  %128 = sext i32 %127 to i64
  %129 = getelementptr inbounds [51 x [33 x i8]], [51 x [33 x i8]]* %7, i64 0, i64 %128
  %130 = load i32, i32* %4, align 4
  %131 = sext i32 %130 to i64
  %132 = getelementptr inbounds [33 x i8], [33 x i8]* %129, i64 0, i64 %131
  %133 = load i8, i8* %132, align 1
  %134 = load i32, i32* %3, align 4
  %135 = sext i32 %134 to i64
  %136 = getelementptr inbounds [51 x [33 x i8]], [51 x [33 x i8]]* %8, i64 0, i64 %135
  %137 = load i32, i32* %4, align 4
  %138 = sext i32 %137 to i64
  %139 = getelementptr inbounds [33 x i8], [33 x i8]* %136, i64 0, i64 %138
  store i8 %133, i8* %139, align 1
  br label %140

140:                                              ; preds = %126
  %141 = load i32, i32* %4, align 4
  %142 = add nsw i32 %141, 1
  store i32 %142, i32* %4, align 4
  br label %121

143:                                              ; preds = %121
  %144 = load i32, i32* %3, align 4
  %145 = sext i32 %144 to i64
  %146 = getelementptr inbounds [51 x [33 x i8]], [51 x [33 x i8]]* %8, i64 0, i64 %145
  %147 = load i32, i32* %5, align 4
  %148 = sub nsw i32 %147, 2
  %149 = sext i32 %148 to i64
  %150 = getelementptr inbounds [33 x i8], [33 x i8]* %146, i64 0, i64 %149
  store i8 0, i8* %150, align 1
  br label %151

151:                                              ; preds = %143, %109
  br label %152

152:                                              ; preds = %151, %101
  br label %153

153:                                              ; preds = %152, %59
  br label %154

154:                                              ; preds = %153
  %155 = load i32, i32* %3, align 4
  %156 = add nsw i32 %155, 1
  store i32 %156, i32* %3, align 4
  br label %10

157:                                              ; preds = %10
  store i32 0, i32* %3, align 4
  br label %158

158:                                              ; preds = %168, %157
  %159 = load i32, i32* %3, align 4
  %160 = load i32, i32* %2, align 4
  %161 = icmp slt i32 %159, %160
  br i1 %161, label %162, label %171

162:                                              ; preds = %158
  %163 = load i32, i32* %3, align 4
  %164 = sext i32 %163 to i64
  %165 = getelementptr inbounds [51 x [33 x i8]], [51 x [33 x i8]]* %8, i64 0, i64 %164
  %166 = getelementptr inbounds [33 x i8], [33 x i8]* %165, i64 0, i64 0
  %167 = call i32 (i8*, ...) @printf(i8* getelementptr inbounds ([4 x i8], [4 x i8]* @.str.2, i64 0, i64 0), i8* %166)
  br label %168

168:                                              ; preds = %162
  %169 = load i32, i32* %3, align 4
  %170 = add nsw i32 %169, 1
  store i32 %170, i32* %3, align 4
  br label %158

171:                                              ; preds = %158
  ret i32 0
}

declare dso_local i32 @__isoc99_scanf(i8*, ...) #1

; Function Attrs: nounwind readonly
declare dso_local i64 @strlen(i8*) #2

declare dso_local i32 @printf(i8*, ...) #1


!llvm.module.flags = !{!0}
!llvm.ident = !{!1}

!0 = !{i32 1, !"wchar_size", i32 4}
!1 = !{!"clang version 10.0.0-4ubuntu1 "}
